; Function Attrs: mustprogress nounwind uwtable
define internal void @_ZN4node9inspector12_GLOBAL__N_116DeletableWrapperINS1_22MainThreadSessionStateEED0Ev(ptr noundef nonnull align 8 dereferenceable(16) %this) unnamed_addr #3 align 2 {
entry:
  store ptr getelementptr inbounds ({ [4 x ptr] }, ptr @_ZTVN4node9inspector12_GLOBAL__N_116DeletableWrapperINS1_22MainThreadSessionStateEEE, i64 0, i32 0, i64 2), ptr %this, align 8
  %object_.i = getelementptr inbounds i8, ptr %this, i64 8
  %0 = load ptr, ptr %object_.i, align 8
  %cmp.not.i.i = icmp eq ptr %0, null
  br i1 %cmp.not.i.i, label %_ZN4node9inspector12_GLOBAL__N_116DeletableWrapperINS1_22MainThreadSessionStateEED2Ev.exit, label %delete.notnull.i.i.i

delete.notnull.i.i.i:                             ; preds = %entry
  %session_.i.i.i.i = getelementptr inbounds i8, ptr %0, i64 16
  %1 = load ptr, ptr %session_.i.i.i.i, align 8
  %cmp.not.i.i.i.i.i = icmp eq ptr %1, null
  br i1 %cmp.not.i.i.i.i.i, label %_ZNKSt14default_deleteIN4node9inspector12_GLOBAL__N_122MainThreadSessionStateEEclEPS3_.exit.i.i, label %_ZNKSt14default_deleteIN4node9inspector16InspectorSessionEEclEPS2_.exit.i.i.i.i.i

_ZNKSt14default_deleteIN4node9inspector16InspectorSessionEEclEPS2_.exit.i.i.i.i.i: ; preds = %delete.notnull.i.i.i
  %vtable.i.i.i.i.i.i = load ptr, ptr %1, align 8
  %vfn.i.i.i.i.i.i = getelementptr inbounds i8, ptr %vtable.i.i.i.i.i.i, i64 8
  %2 = load ptr, ptr %vfn.i.i.i.i.i.i, align 8
  tail call void %2(ptr noundef nonnull align 8 dereferenceable(8) %1) #20
  br label %_ZNKSt14default_deleteIN4node9inspector12_GLOBAL__N_122MainThreadSessionStateEEclEPS3_.exit.i.i

_ZNKSt14default_deleteIN4node9inspector12_GLOBAL__N_122MainThreadSessionStateEEclEPS3_.exit.i.i: ; preds = %_ZNKSt14default_deleteIN4node9inspector16InspectorSessionEEclEPS2_.exit.i.i.i.i.i, %delete.notnull.i.i.i
  tail call void @_ZdlPv(ptr noundef nonnull %0) #22
  br label %_ZN4node9inspector12_GLOBAL__N_116DeletableWrapperINS1_22MainThreadSessionStateEED2Ev.exit

_ZN4node9inspector12_GLOBAL__N_116DeletableWrapperINS1_22MainThreadSessionStateEED2Ev.exit: ; preds = %entry, %_ZNKSt14default_deleteIN4node9inspector12_GLOBAL__N_122MainThreadSessionStateEEclEPS3_.exit.i.i
  tail call void @_ZdlPv(ptr noundef nonnull %this) #22
  ret void
}